; Function Attrs: nounwind sspstrong uwtable
define dso_local i64 @rb_intern_str(i64 noundef %0) local_unnamed_addr #0 {
  %2 = alloca i32, align 4
  call void @llvm.lifetime.start.p0(i64 4, ptr nonnull %2) #19
  %3 = load ptr, ptr @ruby_single_main_ractor, align 8, !tbaa !24
  %.not.i.i.i = icmp eq ptr %3, null
  br i1 %.not.i.i.i, label %4, label %rb_vm_lock_enter.exit.i

4:                                                ; preds = %1
  call void @rb_vm_lock_enter_body(ptr noundef nonnull %2) #19
  br label %rb_vm_lock_enter.exit.i

rb_vm_lock_enter.exit.i:                          ; preds = %4, %1
  %5 = call fastcc i64 @lookup_str_sym_with_lock(i64 noundef %0)
  %6 = load ptr, ptr @ruby_single_main_ractor, align 8, !tbaa !24
  %.not.i.i2.i = icmp eq ptr %6, null
  br i1 %.not.i.i2.i, label %7, label %lookup_str_sym.exit

7:                                                ; preds = %rb_vm_lock_enter.exit.i
  call void @rb_vm_lock_leave_body(ptr noundef nonnull %2) #19
  br label %lookup_str_sym.exit

lookup_str_sym.exit:                              ; preds = %rb_vm_lock_enter.exit.i, %7
  call void @llvm.lifetime.end.p0(i64 4, ptr nonnull %2) #19
  %.not = icmp eq i64 %5, 0
  br i1 %.not, label %10, label %8

8:                                                ; preds = %lookup_str_sym.exit
  %9 = call i64 @rb_sym2id(i64 noundef %5)
  br label %12

10:                                               ; preds = %lookup_str_sym.exit
  %11 = call fastcc i64 @intern_str(i64 noundef %0, i32 noundef 0)
  br label %12

12:                                               ; preds = %10, %8
  %.0 = phi i64 [ %9, %8 ], [ %11, %10 ]
  ret i64 %.0
}